target datalayout = "e-m:e-p270:32:32-p271:32:32-p272:64:64-i64:64-i128:128-f80:128-n8:16:32:64-S128"
target triple = "x86_64-pc-linux-gnu"

%struct.sqlda_compat = type { i16, ptr, [19 x i8], i16, ptr, ptr }
%struct.sqlvar_compat = type { i16, i32, ptr, ptr, ptr, ptr, i16, i16, ptr, i32, ptr, i16, i16, i16, ptr, i32, ptr, i32, ptr }

@.str = private unnamed_addr constant [46 x i8] c"ecpg_build_compat_sqlda on line %d sqld = %d\0A\00", align 1

; Function Attrs: nounwind uwtable
define internal void @ecpg_sqlda_align_add_size(i64 noundef %0, i32 noundef %1, i32 noundef %2, ptr noundef %3, ptr noundef %4) #0 {
  %6 = alloca i64, align 8
  %7 = alloca i32, align 4
  %8 = alloca i32, align 4
  %9 = alloca ptr, align 8
  %10 = alloca ptr, align 8
  store i64 %0, ptr %6, align 8
  store i32 %1, ptr %7, align 4
  store i32 %2, ptr %8, align 4
  store ptr %3, ptr %9, align 8
  store ptr %4, ptr %10, align 8
  %11 = load i64, ptr %6, align 8
  %12 = load i32, ptr %7, align 4
  %13 = sext i32 %12 to i64
  %14 = srem i64 %11, %13
  %15 = icmp ne i64 %14, 0
  br i1 %15, label %16, label %26

16:                                               ; preds = %5
  %17 = load i32, ptr %7, align 4
  %18 = sext i32 %17 to i64
  %19 = load i64, ptr %6, align 8
  %20 = load i32, ptr %7, align 4
  %21 = sext i32 %20 to i64
  %22 = srem i64 %19, %21
  %23 = sub i64 %18, %22
  %24 = load i64, ptr %6, align 8
  %25 = add i64 %24, %23
  store i64 %25, ptr %6, align 8
  br label %26

26:                                               ; preds = %16, %5
  %27 = load ptr, ptr %9, align 8
  %28 = icmp ne ptr %27, null
  br i1 %28, label %29, label %32

29:                                               ; preds = %26
  %30 = load i64, ptr %6, align 8
  %31 = load ptr, ptr %9, align 8
  store i64 %30, ptr %31, align 8
  br label %32

32:                                               ; preds = %29, %26
  %33 = load i32, ptr %8, align 4
  %34 = sext i32 %33 to i64
  %35 = load i64, ptr %6, align 8
  %36 = add i64 %35, %34
  store i64 %36, ptr %6, align 8
  %37 = load ptr, ptr %10, align 8
  %38 = icmp ne ptr %37, null
  br i1 %38, label %39, label %42

39:                                               ; preds = %32
  %40 = load i64, ptr %6, align 8
  %41 = load ptr, ptr %10, align 8
  store i64 %40, ptr %41, align 8
  br label %42

42:                                               ; preds = %39, %32
  ret void
}

; Function Attrs: nounwind uwtable
define internal i64 @sqlda_compat_empty_size(ptr noundef %0) #0 {
  %2 = alloca ptr, align 8
  %3 = alloca i64, align 8
  %4 = alloca i32, align 4
  %5 = alloca i32, align 4
  store ptr %0, ptr %2, align 8
  call void @llvm.lifetime.start.p0(i64 8, ptr %3) #7
  call void @llvm.lifetime.start.p0(i64 4, ptr %4) #7
  call void @llvm.lifetime.start.p0(i64 4, ptr %5) #7
  %6 = load ptr, ptr %2, align 8
  %7 = call i32 @PQnfields(ptr noundef %6)
  store i32 %7, ptr %5, align 4
  %8 = load i32, ptr %5, align 4
  %9 = sext i32 %8 to i64
  %10 = mul i64 %9, 120
  %11 = add i64 56, %10
  store i64 %11, ptr %3, align 8
  store i32 0, ptr %4, align 4
  br label %12

12:                                               ; preds = %24, %1
  %13 = load i32, ptr %4, align 4
  %14 = load i32, ptr %5, align 4
  %15 = icmp slt i32 %13, %14
  br i1 %15, label %16, label %27

16:                                               ; preds = %12
  %17 = load ptr, ptr %2, align 8
  %18 = load i32, ptr %4, align 4
  %19 = call ptr @PQfname(ptr noundef %17, i32 noundef %18)
  %20 = call i64 @strlen(ptr noundef %19) #8
  %21 = add i64 %20, 1
  %22 = load i64, ptr %3, align 8
  %23 = add i64 %22, %21
  store i64 %23, ptr %3, align 8
  br label %24

24:                                               ; preds = %16
  %25 = load i32, ptr %4, align 4
  %26 = add i32 %25, 1
  store i32 %26, ptr %4, align 4
  br label %12, !llvm.loop !8

27:                                               ; preds = %12
  %28 = load i64, ptr %3, align 8
  call void @ecpg_sqlda_align_add_size(i64 noundef %28, i32 noundef 4, i32 noundef 0, ptr noundef %3, ptr noundef null)
  %29 = load i64, ptr %3, align 8
  call void @llvm.lifetime.end.p0(i64 4, ptr %5) #7
  call void @llvm.lifetime.end.p0(i64 4, ptr %4) #7
  call void @llvm.lifetime.end.p0(i64 8, ptr %3) #7
  ret i64 %29
}

; Function Attrs: nounwind uwtable
define internal i64 @sqlda_compat_total_size(ptr noundef %0, i32 noundef %1, i32 noundef %2) #0 {
  %4 = alloca i64, align 8
  %5 = alloca ptr, align 8
  %6 = alloca i32, align 4
  %7 = alloca i32, align 4
  %8 = alloca i64, align 8
  %9 = alloca i32, align 4
  store ptr %0, ptr %5, align 8
  store i32 %1, ptr %6, align 4
  store i32 %2, ptr %7, align 4
  call void @llvm.lifetime.start.p0(i64 8, ptr %8) #7
  %10 = load ptr, ptr %5, align 8
  %11 = call i64 @sqlda_compat_empty_size(ptr noundef %10)
  store i64 %11, ptr %8, align 8
  %12 = load i32, ptr %6, align 4
  %13 = icmp slt i32 %12, 0
  br i1 %13, label %14, label %16

14:                                               ; preds = %3
  %15 = load i64, ptr %8, align 8
  store i64 %15, ptr %4, align 8
  store i32 1, ptr %9, align 4
  br label %23

16:                                               ; preds = %3
  %17 = load ptr, ptr %5, align 8
  %18 = load i32, ptr %6, align 4
  %19 = load i32, ptr %7, align 4
  %20 = load i64, ptr %8, align 8
  %21 = call i64 @sqlda_common_total_size(ptr noundef %17, i32 noundef %18, i32 noundef %19, i64 noundef %20)
  store i64 %21, ptr %8, align 8
  %22 = load i64, ptr %8, align 8
  store i64 %22, ptr %4, align 8
  store i32 1, ptr %9, align 4
  br label %23

23:                                               ; preds = %16, %14
  call void @llvm.lifetime.end.p0(i64 8, ptr %8) #7
  %24 = load i64, ptr %4, align 8
  ret i64 %24
}

; Function Attrs: nounwind uwtable
define ptr @ecpg_build_compat_sqlda(i32 noundef %0, ptr noundef %1, i32 noundef %2, i32 noundef %3) #0 {
  %5 = alloca ptr, align 8
  %6 = alloca i32, align 4
  %7 = alloca ptr, align 8
  %8 = alloca i32, align 4
  %9 = alloca i32, align 4
  %10 = alloca ptr, align 8
  %11 = alloca ptr, align 8
  %12 = alloca ptr, align 8
  %13 = alloca i64, align 8
  %14 = alloca i32, align 4
  %15 = alloca i32, align 4
  %16 = alloca i32, align 4
  store i32 %0, ptr %6, align 4
  store ptr %1, ptr %7, align 8
  store i32 %2, ptr %8, align 4
  store i32 %3, ptr %9, align 4
  call void @llvm.lifetime.start.p0(i64 8, ptr %10) #7
  call void @llvm.lifetime.start.p0(i64 8, ptr %11) #7
  call void @llvm.lifetime.start.p0(i64 8, ptr %12) #7
  call void @llvm.lifetime.start.p0(i64 8, ptr %13) #7
  call void @llvm.lifetime.start.p0(i64 4, ptr %14) #7
  call void @llvm.lifetime.start.p0(i64 4, ptr %15) #7
  %17 = load ptr, ptr %7, align 8
  %18 = load i32, ptr %8, align 4
  %19 = load i32, ptr %9, align 4
  %20 = call i64 @sqlda_compat_total_size(ptr noundef %17, i32 noundef %18, i32 noundef %19)
  store i64 %20, ptr %13, align 8
  %21 = load i64, ptr %13, align 8
  %22 = load i32, ptr %6, align 4
  %23 = call ptr @ecpg_alloc(i64 noundef %21, i32 noundef %22)
  store ptr %23, ptr %10, align 8
  %24 = load ptr, ptr %10, align 8
  %25 = icmp ne ptr %24, null
  br i1 %25, label %27, label %26

26:                                               ; preds = %4
  store ptr null, ptr %5, align 8
  store i32 1, ptr %16, align 4
  br label %123

27:                                               ; preds = %4
  %28 = load ptr, ptr %10, align 8
  %29 = load i64, ptr %13, align 8
  call void @llvm.memset.p0.i64(ptr align 8 %28, i8 0, i64 %29, i1 false)
  %30 = load ptr, ptr %10, align 8
  %31 = getelementptr inbounds %struct.sqlda_compat, ptr %30, i64 1
  store ptr %31, ptr %11, align 8
  %32 = load ptr, ptr %7, align 8
  %33 = call i32 @PQnfields(ptr noundef %32)
  store i32 %33, ptr %14, align 4
  %34 = load ptr, ptr %11, align 8
  %35 = load i32, ptr %14, align 4
  %36 = sext i32 %35 to i64
  %37 = getelementptr inbounds %struct.sqlvar_compat, ptr %34, i64 %36
  store ptr %37, ptr %12, align 8
  %38 = load i32, ptr %14, align 4
  %39 = trunc i32 %38 to i16
  %40 = load ptr, ptr %10, align 8
  %41 = getelementptr inbounds nuw %struct.sqlda_compat, ptr %40, i32 0, i32 0
  store i16 %39, ptr %41, align 8
  %42 = load i32, ptr %6, align 4
  %43 = load i32, ptr %14, align 4
  call void (ptr, ...) @ecpg_log(ptr noundef @.str, i32 noundef %42, i32 noundef %43)
  %44 = load i64, ptr %13, align 8
  %45 = trunc i64 %44 to i16
  %46 = load ptr, ptr %10, align 8
  %47 = getelementptr inbounds nuw %struct.sqlda_compat, ptr %46, i32 0, i32 3
  store i16 %45, ptr %47, align 4
  %48 = load ptr, ptr %11, align 8
  %49 = load ptr, ptr %10, align 8
  %50 = getelementptr inbounds nuw %struct.sqlda_compat, ptr %49, i32 0, i32 1
  store ptr %48, ptr %50, align 8
  store i32 0, ptr %15, align 4
  br label %51

51:                                               ; preds = %118, %27
  %52 = load i32, ptr %15, align 4
  %53 = load ptr, ptr %10, align 8
  %54 = getelementptr inbounds nuw %struct.sqlda_compat, ptr %53, i32 0, i32 0
  %55 = load i16, ptr %54, align 8
  %56 = sext i16 %55 to i32
  %57 = icmp slt i32 %52, %56
  br i1 %57, label %58, label %121

58:                                               ; preds = %51
  %59 = load ptr, ptr %7, align 8
  %60 = load i32, ptr %15, align 4
  %61 = call i32 @PQftype(ptr noundef %59, i32 noundef %60)
  %62 = load i32, ptr %9, align 4
  %63 = call i32 @sqlda_dynamic_type(i32 noundef %61, i32 noundef %62)
  %64 = trunc i32 %63 to i16
  %65 = load ptr, ptr %10, align 8
  %66 = getelementptr inbounds nuw %struct.sqlda_compat, ptr %65, i32 0, i32 1
  %67 = load ptr, ptr %66, align 8
  %68 = load i32, ptr %15, align 4
  %69 = sext i32 %68 to i64
  %70 = getelementptr inbounds %struct.sqlvar_compat, ptr %67, i64 %69
  %71 = getelementptr inbounds nuw %struct.sqlvar_compat, ptr %70, i32 0, i32 0
  store i16 %64, ptr %71, align 8
  %72 = load ptr, ptr %12, align 8
  %73 = load ptr, ptr %7, align 8
  %74 = load i32, ptr %15, align 4
  %75 = call ptr @PQfname(ptr noundef %73, i32 noundef %74)
  %76 = call ptr @strcpy(ptr noundef %72, ptr noundef %75) #7
  %77 = load ptr, ptr %12, align 8
  %78 = load ptr, ptr %10, align 8
  %79 = getelementptr inbounds nuw %struct.sqlda_compat, ptr %78, i32 0, i32 1
  %80 = load ptr, ptr %79, align 8
  %81 = load i32, ptr %15, align 4
  %82 = sext i32 %81 to i64
  %83 = getelementptr inbounds %struct.sqlvar_compat, ptr %80, i64 %82
  %84 = getelementptr inbounds nuw %struct.sqlvar_compat, ptr %83, i32 0, i32 4
  store ptr %77, ptr %84, align 8
  %85 = load ptr, ptr %10, align 8
  %86 = getelementptr inbounds nuw %struct.sqlda_compat, ptr %85, i32 0, i32 1
  %87 = load ptr, ptr %86, align 8
  %88 = load i32, ptr %15, align 4
  %89 = sext i32 %88 to i64
  %90 = getelementptr inbounds %struct.sqlvar_compat, ptr %87, i64 %89
  %91 = getelementptr inbounds nuw %struct.sqlvar_compat, ptr %90, i32 0, i32 4
  %92 = load ptr, ptr %91, align 8
  %93 = call i64 @strlen(ptr noundef %92) #8
  %94 = add i64 %93, 1
  %95 = load ptr, ptr %12, align 8
  %96 = getelementptr inbounds nuw i8, ptr %95, i64 %94
  store ptr %96, ptr %12, align 8
  %97 = load ptr, ptr %7, align 8
  %98 = load i32, ptr %15, align 4
  %99 = call i32 @PQftype(ptr noundef %97, i32 noundef %98)
  %100 = load ptr, ptr %10, align 8
  %101 = getelementptr inbounds nuw %struct.sqlda_compat, ptr %100, i32 0, i32 1
  %102 = load ptr, ptr %101, align 8
  %103 = load i32, ptr %15, align 4
  %104 = sext i32 %103 to i64
  %105 = getelementptr inbounds %struct.sqlvar_compat, ptr %102, i64 %104
  %106 = getelementptr inbounds nuw %struct.sqlvar_compat, ptr %105, i32 0, i32 9
  store i32 %99, ptr %106, align 8
  %107 = load ptr, ptr %7, align 8
  %108 = load i32, ptr %15, align 4
  %109 = call i32 @PQfsize(ptr noundef %107, i32 noundef %108)
  %110 = trunc i32 %109 to i16
  %111 = load ptr, ptr %10, align 8
  %112 = getelementptr inbounds nuw %struct.sqlda_compat, ptr %111, i32 0, i32 1
  %113 = load ptr, ptr %112, align 8
  %114 = load i32, ptr %15, align 4
  %115 = sext i32 %114 to i64
  %116 = getelementptr inbounds %struct.sqlvar_compat, ptr %113, i64 %115
  %117 = getelementptr inbounds nuw %struct.sqlvar_compat, ptr %116, i32 0, i32 11
  store i16 %110, ptr %117, align 8
  br label %118

118:                                              ; preds = %58
  %119 = load i32, ptr %15, align 4
  %120 = add i32 %119, 1
  store i32 %120, ptr %15, align 4
  br label %51, !llvm.loop !3

121:                                              ; preds = %51
  %122 = load ptr, ptr %10, align 8
  store ptr %122, ptr %5, align 8
  store i32 1, ptr %16, align 4
  br label %123

123:                                              ; preds = %121, %26
  call void @llvm.lifetime.end.p0(i64 4, ptr %15) #7
  call void @llvm.lifetime.end.p0(i64 4, ptr %14) #7
  call void @llvm.lifetime.end.p0(i64 8, ptr %13) #7
  call void @llvm.lifetime.end.p0(i64 8, ptr %12) #7
  call void @llvm.lifetime.end.p0(i64 8, ptr %11) #7
  call void @llvm.lifetime.end.p0(i64 8, ptr %10) #7
  %124 = load ptr, ptr %5, align 8
  ret ptr %124
}