; Function Attrs: nounwind uwtable
define ptr @ecpg_build_compat_sqlda(i32 noundef %0, ptr noundef %1, i32 noundef %2, i32 noundef %3) local_unnamed_addr #0 {
  %5 = tail call i32 @PQnfields(ptr noundef %1) #6
  %6 = sext i32 %5 to i64
  %7 = mul nsw i64 %6, 120
  %8 = add nsw i64 %7, 56
  %9 = icmp sgt i32 %5, 0
  br i1 %9, label %.lr.ph.i.i, label %sqlda_compat_empty_size.exit.i

.lr.ph.i.i:                                       ; preds = %4, %.lr.ph.i.i
  %.010.i.i = phi i32 [ %14, %.lr.ph.i.i ], [ 0, %4 ]
  %.089.i.i = phi i64 [ %13, %.lr.ph.i.i ], [ %8, %4 ]
  %10 = tail call ptr @PQfname(ptr noundef %1, i32 noundef %.010.i.i) #6
  %11 = tail call i64 @strlen(ptr noundef nonnull dereferenceable(1) %10) #7
  %12 = add i64 %.089.i.i, 1
  %13 = add i64 %12, %11
  %14 = add nuw nsw i32 %.010.i.i, 1
  %exitcond.not.i.i = icmp eq i32 %14, %5
  br i1 %exitcond.not.i.i, label %sqlda_compat_empty_size.exit.i, label %.lr.ph.i.i, !llvm.loop !3

sqlda_compat_empty_size.exit.i:                   ; preds = %.lr.ph.i.i, %4
  %.08.lcssa.i.i = phi i64 [ %8, %4 ], [ %13, %.lr.ph.i.i ]
  %15 = srem i64 %.08.lcssa.i.i, 4
  %.not.i.i.i = icmp eq i64 %15, 0
  %16 = sub nsw i64 4, %15
  %17 = select i1 %.not.i.i.i, i64 0, i64 %16
  %.0.i.i.i = add i64 %17, %.08.lcssa.i.i
  %18 = icmp slt i32 %2, 0
  br i1 %18, label %sqlda_compat_total_size.exit, label %19

19:                                               ; preds = %sqlda_compat_empty_size.exit.i
  %20 = tail call fastcc i64 @sqlda_common_total_size(ptr noundef %1, i32 noundef %2, i32 noundef %3, i64 noundef %.0.i.i.i)
  br label %sqlda_compat_total_size.exit

sqlda_compat_total_size.exit:                     ; preds = %sqlda_compat_empty_size.exit.i, %19
  %.0.i = phi i64 [ %20, %19 ], [ %.0.i.i.i, %sqlda_compat_empty_size.exit.i ]
  %21 = tail call ptr @ecpg_alloc(i64 noundef %.0.i, i32 noundef %0) #6
  %.not = icmp eq ptr %21, null
  br i1 %.not, label %.loopexit, label %22

22:                                               ; preds = %sqlda_compat_total_size.exit
  tail call void @llvm.memset.p0.i64(ptr nonnull align 8 %21, i8 0, i64 %.0.i, i1 false)
  %23 = getelementptr inbounds nuw i8, ptr %21, i64 56
  %24 = tail call i32 @PQnfields(ptr noundef %1) #6
  %25 = trunc i32 %24 to i16
  store i16 %25, ptr %21, align 8
  tail call void (ptr, ...) @ecpg_log(ptr noundef nonnull @.str, i32 noundef %0, i32 noundef %24) #6
  %26 = trunc i64 %.0.i to i16
  %27 = getelementptr inbounds nuw i8, ptr %21, i64 36
  store i16 %26, ptr %27, align 4
  %28 = getelementptr inbounds nuw i8, ptr %21, i64 8
  store ptr %23, ptr %28, align 8
  %29 = load i16, ptr %21, align 8
  %30 = icmp sgt i16 %29, 0
  br i1 %30, label %.lr.ph.preheader, label %.loopexit

.lr.ph.preheader:                                 ; preds = %22
  %31 = sext i32 %24 to i64
  %32 = getelementptr inbounds %struct.sqlvar_compat, ptr %23, i64 %31
  br label %.lr.ph

.lr.ph:                                           ; preds = %.lr.ph.preheader, %.lr.ph
  %indvars.iv = phi i64 [ 0, %.lr.ph.preheader ], [ %indvars.iv.next, %.lr.ph ]
  %.04749 = phi ptr [ %32, %.lr.ph.preheader ], [ %48, %.lr.ph ]
  %33 = trunc nuw nsw i64 %indvars.iv to i32
  %34 = tail call i32 @PQftype(ptr noundef %1, i32 noundef %33) #6
  %35 = tail call i32 @sqlda_dynamic_type(i32 noundef %34, i32 noundef %3) #6
  %36 = trunc i32 %35 to i16
  %37 = load ptr, ptr %28, align 8
  %38 = getelementptr inbounds nuw %struct.sqlvar_compat, ptr %37, i64 %indvars.iv
  store i16 %36, ptr %38, align 8
  %39 = tail call ptr @PQfname(ptr noundef %1, i32 noundef %33) #6
  %40 = tail call ptr @strcpy(ptr noundef nonnull dereferenceable(1) %.04749, ptr noundef nonnull dereferenceable(1) %39) #6
  %41 = load ptr, ptr %28, align 8
  %42 = getelementptr inbounds nuw %struct.sqlvar_compat, ptr %41, i64 %indvars.iv, i32 4
  store ptr %.04749, ptr %42, align 8
  %43 = load ptr, ptr %28, align 8
  %44 = getelementptr inbounds nuw %struct.sqlvar_compat, ptr %43, i64 %indvars.iv, i32 4
  %45 = load ptr, ptr %44, align 8
  %46 = tail call i64 @strlen(ptr noundef nonnull dereferenceable(1) %45) #7
  %47 = getelementptr i8, ptr %.04749, i64 %46
  %48 = getelementptr i8, ptr %47, i64 1
  %49 = tail call i32 @PQftype(ptr noundef %1, i32 noundef %33) #6
  %50 = load ptr, ptr %28, align 8
  %51 = getelementptr inbounds nuw %struct.sqlvar_compat, ptr %50, i64 %indvars.iv, i32 9
  store i32 %49, ptr %51, align 8
  %52 = tail call i32 @PQfsize(ptr noundef %1, i32 noundef %33) #6
  %53 = trunc i32 %52 to i16
  %54 = load ptr, ptr %28, align 8
  %55 = getelementptr inbounds nuw %struct.sqlvar_compat, ptr %54, i64 %indvars.iv, i32 11
  store i16 %53, ptr %55, align 8
  %indvars.iv.next = add nuw nsw i64 %indvars.iv, 1
  %56 = load i16, ptr %21, align 8
  %57 = sext i16 %56 to i64
  %58 = icmp slt i64 %indvars.iv.next, %57
  br i1 %58, label %.lr.ph, label %.loopexit, !llvm.loop !5

.loopexit:                                        ; preds = %.lr.ph, %22, %sqlda_compat_total_size.exit
  ret ptr %21
}